; Function Attrs: mustprogress nofree norecurse nosync nounwind willreturn memory(read, inaccessiblemem: none) uwtable
define dso_local noundef nonnull align 8 dereferenceable(26) ptr @_ZNK3net18ReliableQuicStream25PeerAddressOfLatestPacketEv(ptr nocapture noundef nonnull readonly align 8 dereferenceable(377) %this) unnamed_addr #8 align 2 {
entry:
  %session_ = getelementptr inbounds i8, ptr %this, i64 224
  %0 = load ptr, ptr %session_, align 8
  %connection_.i = getelementptr inbounds i8, ptr %0, i64 56
  %1 = load ptr, ptr %connection_.i, align 8
  %last_packet_source_address_.i = getelementptr inbounds i8, ptr %1, i64 3248
  ret ptr %last_packet_source_address_.i
}